target datalayout = "e-m:e-p270:32:32-p271:32:32-p272:64:64-i64:64-i128:128-f80:128-n8:16:32:64-S128"
target triple = "x86_64-pc-linux-gnu"

%struct.flag = type { ptr, ptr, i64, i64 }
%struct.archive_entry = type { ptr, ptr, i32, %struct.aest, i32, %struct.archive_mstring, i64, i64, %struct.archive_mstring, %struct.archive_mstring, %struct.archive_mstring, %struct.archive_mstring, %struct.archive_mstring, i8, ptr, i64, %struct.ae_digest, %struct.archive_acl, ptr, ptr, ptr, ptr, ptr, [12 x i8], i32 }
%struct.aest = type { i64, i32, i64, i32, i64, i32, i64, i32, i64, i64, i32, i64, i64, i32, i64, i64, i64, i32, i64, i64, i64 }
%struct.archive_mstring = type { %struct.archive_string, %struct.archive_string, %struct.archive_wstring, %struct.archive_string, i32 }
%struct.archive_wstring = type { ptr, i64, i64 }
%struct.archive_string = type { ptr, i64, i64 }
%struct.ae_digest = type { [16 x i8], [20 x i8], [20 x i8], [32 x i8], [48 x i8], [64 x i8] }
%struct.archive_acl = type { i32, ptr, ptr, i32, ptr, ptr, i32 }

@.str = private unnamed_addr constant [10 x i8] c"No memory\00", align 1

; Function Attrs: nounwind uwtable
define internal ptr @ae_fflagstostr(i64 noundef %0, i64 noundef %1) #0 {
  %3 = alloca ptr, align 8
  %4 = alloca i64, align 8
  %5 = alloca i64, align 8
  %6 = alloca ptr, align 8
  %7 = alloca ptr, align 8
  %8 = alloca ptr, align 8
  %9 = alloca i64, align 8
  %10 = alloca ptr, align 8
  %11 = alloca i64, align 8
  %12 = alloca i32, align 4
  store i64 %0, ptr %4, align 8, !tbaa !27
  store i64 %1, ptr %5, align 8, !tbaa !27
  call void @llvm.lifetime.start.p0(i64 8, ptr %6) #13
  call void @llvm.lifetime.start.p0(i64 8, ptr %7) #13
  call void @llvm.lifetime.start.p0(i64 8, ptr %8) #13
  call void @llvm.lifetime.start.p0(i64 8, ptr %9) #13
  call void @llvm.lifetime.start.p0(i64 8, ptr %10) #13
  call void @llvm.lifetime.start.p0(i64 8, ptr %11) #13
  %13 = load i64, ptr %4, align 8, !tbaa !27
  %14 = load i64, ptr %5, align 8, !tbaa !27
  %15 = or i64 %13, %14
  store i64 %15, ptr %9, align 8, !tbaa !27
  store i64 0, ptr %11, align 8, !tbaa !27
  store ptr @fileflags, ptr %10, align 8, !tbaa !68
  br label %16

16:                                               ; preds = %51, %2
  %17 = load ptr, ptr %10, align 8, !tbaa !68
  %18 = getelementptr inbounds nuw %struct.flag, ptr %17, i32 0, i32 0
  %19 = load ptr, ptr %18, align 8, !tbaa !70
  %20 = icmp ne ptr %19, null
  br i1 %20, label %21, label %54

21:                                               ; preds = %16
  %22 = load i64, ptr %9, align 8, !tbaa !27
  %23 = load ptr, ptr %10, align 8, !tbaa !68
  %24 = getelementptr inbounds nuw %struct.flag, ptr %23, i32 0, i32 2
  %25 = load i64, ptr %24, align 8, !tbaa !72
  %26 = load ptr, ptr %10, align 8, !tbaa !68
  %27 = getelementptr inbounds nuw %struct.flag, ptr %26, i32 0, i32 3
  %28 = load i64, ptr %27, align 8, !tbaa !73
  %29 = or i64 %25, %28
  %30 = and i64 %22, %29
  %31 = icmp ne i64 %30, 0
  br i1 %31, label %32, label %50

32:                                               ; preds = %21
  %33 = load ptr, ptr %10, align 8, !tbaa !68
  %34 = getelementptr inbounds nuw %struct.flag, ptr %33, i32 0, i32 0
  %35 = load ptr, ptr %34, align 8, !tbaa !70
  %36 = call i64 @strlen(ptr noundef %35) #19
  %37 = add i64 %36, 1
  %38 = load i64, ptr %11, align 8, !tbaa !27
  %39 = add i64 %38, %37
  store i64 %39, ptr %11, align 8, !tbaa !27
  %40 = load ptr, ptr %10, align 8, !tbaa !68
  %41 = getelementptr inbounds nuw %struct.flag, ptr %40, i32 0, i32 2
  %42 = load i64, ptr %41, align 8, !tbaa !72
  %43 = load ptr, ptr %10, align 8, !tbaa !68
  %44 = getelementptr inbounds nuw %struct.flag, ptr %43, i32 0, i32 3
  %45 = load i64, ptr %44, align 8, !tbaa !73
  %46 = or i64 %42, %45
  %47 = xor i64 %46, -1
  %48 = load i64, ptr %9, align 8, !tbaa !27
  %49 = and i64 %48, %47
  store i64 %49, ptr %9, align 8, !tbaa !27
  br label %50

50:                                               ; preds = %32, %21
  br label %51

51:                                               ; preds = %50
  %52 = load ptr, ptr %10, align 8, !tbaa !68
  %53 = getelementptr inbounds nuw %struct.flag, ptr %52, i32 1
  store ptr %53, ptr %10, align 8, !tbaa !68
  br label %16, !llvm.loop !74

54:                                               ; preds = %16
  %55 = load i64, ptr %11, align 8, !tbaa !27
  %56 = icmp eq i64 %55, 0
  br i1 %56, label %57, label %58

57:                                               ; preds = %54
  store ptr null, ptr %3, align 8
  store i32 1, ptr %12, align 4
  br label %156

58:                                               ; preds = %54
  %59 = load i64, ptr %11, align 8, !tbaa !27
  %60 = call noalias ptr @malloc(i64 noundef %59) #14
  store ptr %60, ptr %6, align 8, !tbaa !67
  %61 = load ptr, ptr %6, align 8, !tbaa !67
  %62 = icmp eq ptr %61, null
  br i1 %62, label %63, label %64

63:                                               ; preds = %58
  store ptr null, ptr %3, align 8
  store i32 1, ptr %12, align 4
  br label %156

64:                                               ; preds = %58
  %65 = load ptr, ptr %6, align 8, !tbaa !67
  store ptr %65, ptr %7, align 8, !tbaa !67
  store ptr @fileflags, ptr %10, align 8, !tbaa !68
  br label %66

66:                                               ; preds = %150, %64
  %67 = load ptr, ptr %10, align 8, !tbaa !68
  %68 = getelementptr inbounds nuw %struct.flag, ptr %67, i32 0, i32 0
  %69 = load ptr, ptr %68, align 8, !tbaa !70
  %70 = icmp ne ptr %69, null
  br i1 %70, label %71, label %153

71:                                               ; preds = %66
  %72 = load i64, ptr %4, align 8, !tbaa !27
  %73 = load ptr, ptr %10, align 8, !tbaa !68
  %74 = getelementptr inbounds nuw %struct.flag, ptr %73, i32 0, i32 2
  %75 = load i64, ptr %74, align 8, !tbaa !72
  %76 = and i64 %72, %75
  %77 = icmp ne i64 %76, 0
  br i1 %77, label %85, label %78

78:                                               ; preds = %71
  %79 = load i64, ptr %5, align 8, !tbaa !27
  %80 = load ptr, ptr %10, align 8, !tbaa !68
  %81 = getelementptr inbounds nuw %struct.flag, ptr %80, i32 0, i32 3
  %82 = load i64, ptr %81, align 8, !tbaa !73
  %83 = and i64 %79, %82
  %84 = icmp ne i64 %83, 0
  br i1 %84, label %85, label %90

85:                                               ; preds = %78, %71
  %86 = load ptr, ptr %10, align 8, !tbaa !68
  %87 = getelementptr inbounds nuw %struct.flag, ptr %86, i32 0, i32 0
  %88 = load ptr, ptr %87, align 8, !tbaa !70
  %89 = getelementptr inbounds i8, ptr %88, i64 2
  store ptr %89, ptr %8, align 8, !tbaa !67
  br label %110

90:                                               ; preds = %78
  %91 = load i64, ptr %4, align 8, !tbaa !27
  %92 = load ptr, ptr %10, align 8, !tbaa !68
  %93 = getelementptr inbounds nuw %struct.flag, ptr %92, i32 0, i32 3
  %94 = load i64, ptr %93, align 8, !tbaa !73
  %95 = and i64 %91, %94
  %96 = icmp ne i64 %95, 0
  br i1 %96, label %104, label %97

97:                                               ; preds = %90
  %98 = load i64, ptr %5, align 8, !tbaa !27
  %99 = load ptr, ptr %10, align 8, !tbaa !68
  %100 = getelementptr inbounds nuw %struct.flag, ptr %99, i32 0, i32 2
  %101 = load i64, ptr %100, align 8, !tbaa !72
  %102 = and i64 %98, %101
  %103 = icmp ne i64 %102, 0
  br i1 %103, label %104, label %108

104:                                              ; preds = %97, %90
  %105 = load ptr, ptr %10, align 8, !tbaa !68
  %106 = getelementptr inbounds nuw %struct.flag, ptr %105, i32 0, i32 0
  %107 = load ptr, ptr %106, align 8, !tbaa !70
  store ptr %107, ptr %8, align 8, !tbaa !67
  br label %109

108:                                              ; preds = %97
  br label %150

109:                                              ; preds = %104
  br label %110

110:                                              ; preds = %109, %85
  %111 = load ptr, ptr %10, align 8, !tbaa !68
  %112 = getelementptr inbounds nuw %struct.flag, ptr %111, i32 0, i32 2
  %113 = load i64, ptr %112, align 8, !tbaa !72
  %114 = load ptr, ptr %10, align 8, !tbaa !68
  %115 = getelementptr inbounds nuw %struct.flag, ptr %114, i32 0, i32 3
  %116 = load i64, ptr %115, align 8, !tbaa !73
  %117 = or i64 %113, %116
  %118 = xor i64 %117, -1
  %119 = load i64, ptr %4, align 8, !tbaa !27
  %120 = and i64 %119, %118
  store i64 %120, ptr %4, align 8, !tbaa !27
  %121 = load ptr, ptr %10, align 8, !tbaa !68
  %122 = getelementptr inbounds nuw %struct.flag, ptr %121, i32 0, i32 2
  %123 = load i64, ptr %122, align 8, !tbaa !72
  %124 = load ptr, ptr %10, align 8, !tbaa !68
  %125 = getelementptr inbounds nuw %struct.flag, ptr %124, i32 0, i32 3
  %126 = load i64, ptr %125, align 8, !tbaa !73
  %127 = or i64 %123, %126
  %128 = xor i64 %127, -1
  %129 = load i64, ptr %5, align 8, !tbaa !27
  %130 = and i64 %129, %128
  store i64 %130, ptr %5, align 8, !tbaa !27
  %131 = load ptr, ptr %7, align 8, !tbaa !67
  %132 = load ptr, ptr %6, align 8, !tbaa !67
  %133 = icmp ugt ptr %131, %132
  br i1 %133, label %134, label %137

134:                                              ; preds = %110
  %135 = load ptr, ptr %7, align 8, !tbaa !67
  %136 = getelementptr inbounds nuw i8, ptr %135, i32 1
  store ptr %136, ptr %7, align 8, !tbaa !67
  store i8 44, ptr %135, align 1, !tbaa !75
  br label %137

137:                                              ; preds = %134, %110
  br label %138

138:                                              ; preds = %146, %137
  %139 = load ptr, ptr %8, align 8, !tbaa !67
  %140 = getelementptr inbounds nuw i8, ptr %139, i32 1
  store ptr %140, ptr %8, align 8, !tbaa !67
  %141 = load i8, ptr %139, align 1, !tbaa !75
  %142 = load ptr, ptr %7, align 8, !tbaa !67
  %143 = getelementptr inbounds nuw i8, ptr %142, i32 1
  store ptr %143, ptr %7, align 8, !tbaa !67
  store i8 %141, ptr %142, align 1, !tbaa !75
  %144 = sext i8 %141 to i32
  %145 = icmp ne i32 %144, 0
  br i1 %145, label %146, label %147

146:                                              ; preds = %138
  br label %138, !llvm.loop !76

147:                                              ; preds = %138
  %148 = load ptr, ptr %7, align 8, !tbaa !67
  %149 = getelementptr inbounds i8, ptr %148, i32 -1
  store ptr %149, ptr %7, align 8, !tbaa !67
  br label %150

150:                                              ; preds = %147, %108
  %151 = load ptr, ptr %10, align 8, !tbaa !68
  %152 = getelementptr inbounds nuw %struct.flag, ptr %151, i32 1
  store ptr %152, ptr %10, align 8, !tbaa !68
  br label %66, !llvm.loop !77

153:                                              ; preds = %66
  %154 = load ptr, ptr %7, align 8, !tbaa !67
  store i8 0, ptr %154, align 1, !tbaa !75
  %155 = load ptr, ptr %6, align 8, !tbaa !67
  store ptr %155, ptr %3, align 8
  store i32 1, ptr %12, align 4
  br label %156

156:                                              ; preds = %153, %63, %57
  call void @llvm.lifetime.end.p0(i64 8, ptr %11) #13
  call void @llvm.lifetime.end.p0(i64 8, ptr %10) #13
  call void @llvm.lifetime.end.p0(i64 8, ptr %9) #13
  call void @llvm.lifetime.end.p0(i64 8, ptr %8) #13
  call void @llvm.lifetime.end.p0(i64 8, ptr %7) #13
  call void @llvm.lifetime.end.p0(i64 8, ptr %6) #13
  %157 = load ptr, ptr %3, align 8
  ret ptr %157
}

; Function Attrs: nounwind uwtable
define dso_local ptr @archive_entry_fflags_text(ptr noundef %0) #0 {
  %2 = alloca ptr, align 8
  %3 = alloca ptr, align 8
  %4 = alloca ptr, align 8
  %5 = alloca ptr, align 8
  %6 = alloca i32, align 4
  store ptr %0, ptr %3, align 8, !tbaa !4
  call void @llvm.lifetime.start.p0(i64 8, ptr %4) #13
  call void @llvm.lifetime.start.p0(i64 8, ptr %5) #13
  %7 = load ptr, ptr %3, align 8, !tbaa !4
  %8 = getelementptr inbounds nuw %struct.archive_entry, ptr %7, i32 0, i32 0
  %9 = load ptr, ptr %8, align 8, !tbaa !30
  %10 = load ptr, ptr %3, align 8, !tbaa !4
  %11 = getelementptr inbounds nuw %struct.archive_entry, ptr %10, i32 0, i32 5
  %12 = call i32 @archive_mstring_get_mbs(ptr noundef %9, ptr noundef %11, ptr noundef %4)
  %13 = icmp eq i32 %12, 0
  br i1 %13, label %14, label %20

14:                                               ; preds = %1
  %15 = load ptr, ptr %4, align 8, !tbaa !67
  %16 = icmp ne ptr %15, null
  br i1 %16, label %17, label %19

17:                                               ; preds = %14
  %18 = load ptr, ptr %4, align 8, !tbaa !67
  store ptr %18, ptr %2, align 8
  store i32 1, ptr %6, align 4
  br label %69

19:                                               ; preds = %14
  br label %26

20:                                               ; preds = %1
  %21 = call ptr @__errno_location() #17
  %22 = load i32, ptr %21, align 4, !tbaa !32
  %23 = icmp eq i32 %22, 12
  br i1 %23, label %24, label %25

24:                                               ; preds = %20
  call void @__archive_errx(i32 noundef 1, ptr noundef @.str) #18
  unreachable

25:                                               ; preds = %20
  br label %26

26:                                               ; preds = %25, %19
  %27 = load ptr, ptr %3, align 8, !tbaa !4
  %28 = getelementptr inbounds nuw %struct.archive_entry, ptr %27, i32 0, i32 6
  %29 = load i64, ptr %28, align 8, !tbaa !33
  %30 = icmp eq i64 %29, 0
  br i1 %30, label %31, label %37

31:                                               ; preds = %26
  %32 = load ptr, ptr %3, align 8, !tbaa !4
  %33 = getelementptr inbounds nuw %struct.archive_entry, ptr %32, i32 0, i32 7
  %34 = load i64, ptr %33, align 8, !tbaa !34
  %35 = icmp eq i64 %34, 0
  br i1 %35, label %36, label %37

36:                                               ; preds = %31
  store ptr null, ptr %2, align 8
  store i32 1, ptr %6, align 4
  br label %69

37:                                               ; preds = %31, %26
  %38 = load ptr, ptr %3, align 8, !tbaa !4
  %39 = getelementptr inbounds nuw %struct.archive_entry, ptr %38, i32 0, i32 6
  %40 = load i64, ptr %39, align 8, !tbaa !33
  %41 = load ptr, ptr %3, align 8, !tbaa !4
  %42 = getelementptr inbounds nuw %struct.archive_entry, ptr %41, i32 0, i32 7
  %43 = load i64, ptr %42, align 8, !tbaa !34
  %44 = call ptr @ae_fflagstostr(i64 noundef %40, i64 noundef %43)
  store ptr %44, ptr %5, align 8, !tbaa !67
  %45 = load ptr, ptr %5, align 8, !tbaa !67
  %46 = icmp eq ptr %45, null
  br i1 %46, label %47, label %48

47:                                               ; preds = %37
  store ptr null, ptr %2, align 8
  store i32 1, ptr %6, align 4
  br label %69

48:                                               ; preds = %37
  %49 = load ptr, ptr %3, align 8, !tbaa !4
  %50 = getelementptr inbounds nuw %struct.archive_entry, ptr %49, i32 0, i32 5
  %51 = load ptr, ptr %5, align 8, !tbaa !67
  %52 = call i32 @archive_mstring_copy_mbs(ptr noundef %50, ptr noundef %51)
  %53 = load ptr, ptr %5, align 8, !tbaa !67
  call void @free(ptr noundef %53) #13
  %54 = load ptr, ptr %3, align 8, !tbaa !4
  %55 = getelementptr inbounds nuw %struct.archive_entry, ptr %54, i32 0, i32 0
  %56 = load ptr, ptr %55, align 8, !tbaa !30
  %57 = load ptr, ptr %3, align 8, !tbaa !4
  %58 = getelementptr inbounds nuw %struct.archive_entry, ptr %57, i32 0, i32 5
  %59 = call i32 @archive_mstring_get_mbs(ptr noundef %56, ptr noundef %58, ptr noundef %4)
  %60 = icmp eq i32 %59, 0
  br i1 %60, label %61, label %63

61:                                               ; preds = %48
  %62 = load ptr, ptr %4, align 8, !tbaa !67
  store ptr %62, ptr %2, align 8
  store i32 1, ptr %6, align 4
  br label %69

63:                                               ; preds = %48
  %64 = call ptr @__errno_location() #17
  %65 = load i32, ptr %64, align 4, !tbaa !32
  %66 = icmp eq i32 %65, 12
  br i1 %66, label %67, label %68

67:                                               ; preds = %63
  call void @__archive_errx(i32 noundef 1, ptr noundef @.str) #18
  unreachable

68:                                               ; preds = %63
  store ptr null, ptr %2, align 8
  store i32 1, ptr %6, align 4
  br label %69

69:                                               ; preds = %68, %61, %47, %36, %17
  call void @llvm.lifetime.end.p0(i64 8, ptr %5) #13
  call void @llvm.lifetime.end.p0(i64 8, ptr %4) #13
  %70 = load ptr, ptr %2, align 8
  ret ptr %70
}