; Function Attrs: nounwind uwtable
define dso_local ptr @archive_entry_fflags_text(ptr noundef %0) local_unnamed_addr #0 {
  %2 = alloca ptr, align 8
  call void @llvm.lifetime.start.p0(i64 8, ptr nonnull %2) #21
  %3 = load ptr, ptr %0, align 8, !tbaa !25
  %4 = getelementptr inbounds nuw i8, ptr %0, i64 200
  %5 = call i32 @archive_mstring_get_mbs(ptr noundef %3, ptr noundef nonnull %4, ptr noundef nonnull %2) #21
  %6 = icmp eq i32 %5, 0
  br i1 %6, label %7, label %9

7:                                                ; preds = %1
  %8 = load ptr, ptr %2, align 8, !tbaa !57
  %.not = icmp eq ptr %8, null
  br i1 %.not, label %14, label %ae_fflagstostr.exit.thread

9:                                                ; preds = %1
  %10 = tail call ptr @__errno_location() #25
  %11 = load i32, ptr %10, align 4, !tbaa !28
  %12 = icmp eq i32 %11, 12
  br i1 %12, label %13, label %14

13:                                               ; preds = %9
  call void @__archive_errx(i32 noundef 1, ptr noundef nonnull @.str) #23
  unreachable

14:                                               ; preds = %9, %7
  %15 = getelementptr inbounds nuw i8, ptr %0, i64 304
  %16 = load i64, ptr %15, align 8, !tbaa !29
  %17 = icmp eq i64 %16, 0
  %18 = getelementptr inbounds nuw i8, ptr %0, i64 312
  %19 = load i64, ptr %18, align 8, !tbaa !30
  %20 = icmp eq i64 %19, 0
  %or.cond = select i1 %17, i1 %20, i1 false
  br i1 %or.cond, label %ae_fflagstostr.exit.thread, label %._crit_edge

._crit_edge:                                      ; preds = %14
  %21 = or i64 %19, %16
  br label %22

22:                                               ; preds = %36, %._crit_edge
  %23 = phi ptr [ @.str.1, %._crit_edge ], [ %38, %36 ]
  %.066.i = phi i64 [ 0, %._crit_edge ], [ %.1.i, %36 ]
  %.04265.i = phi ptr [ @fileflags, %._crit_edge ], [ %37, %36 ]
  %.04464.i = phi i64 [ %21, %._crit_edge ], [ %.145.i, %36 ]
  %24 = getelementptr inbounds nuw i8, ptr %.04265.i, i64 16
  %25 = load i64, ptr %24, align 8, !tbaa !58
  %26 = getelementptr inbounds nuw i8, ptr %.04265.i, i64 24
  %27 = load i64, ptr %26, align 8, !tbaa !60
  %28 = or i64 %27, %25
  %29 = and i64 %28, %.04464.i
  %.not63.i = icmp eq i64 %29, 0
  br i1 %.not63.i, label %36, label %30

30:                                               ; preds = %22
  %31 = call i64 @strlen(ptr noundef nonnull dereferenceable(1) %23) #26
  %32 = add i64 %.066.i, 1
  %33 = add i64 %32, %31
  %34 = xor i64 %28, -1
  %35 = and i64 %.04464.i, %34
  br label %36

36:                                               ; preds = %30, %22
  %.145.i = phi i64 [ %35, %30 ], [ %.04464.i, %22 ]
  %.1.i = phi i64 [ %33, %30 ], [ %.066.i, %22 ]
  %37 = getelementptr inbounds nuw i8, ptr %.04265.i, i64 32
  %38 = load ptr, ptr %37, align 8, !tbaa !61
  %.not.i = icmp eq ptr %38, null
  br i1 %.not.i, label %39, label %22, !llvm.loop !62

39:                                               ; preds = %36
  %40 = icmp eq i64 %.1.i, 0
  br i1 %40, label %ae_fflagstostr.exit.thread, label %41

41:                                               ; preds = %39
  %42 = call noalias ptr @malloc(i64 noundef %.1.i) #22
  %43 = icmp eq ptr %42, null
  br i1 %43, label %ae_fflagstostr.exit.thread, label %.preheader.i

.preheader.i:                                     ; preds = %41, %.loopexit.i
  %44 = phi ptr [ %68, %.loopexit.i ], [ @.str.1, %41 ]
  %.14373.i = phi ptr [ %67, %.loopexit.i ], [ @fileflags, %41 ]
  %.04871.i = phi ptr [ %.149.i, %.loopexit.i ], [ %42, %41 ]
  %.05169.i = phi i64 [ %.152.i, %.loopexit.i ], [ %19, %41 ]
  %.05367.i = phi i64 [ %.154.i, %.loopexit.i ], [ %16, %41 ]
  %45 = getelementptr inbounds nuw i8, ptr %.14373.i, i64 16
  %46 = load i64, ptr %45, align 8, !tbaa !58
  %47 = and i64 %46, %.05367.i
  %.not58.i = icmp eq i64 %47, 0
  %48 = getelementptr inbounds nuw i8, ptr %.14373.i, i64 24
  %49 = load i64, ptr %48, align 8, !tbaa !60
  %50 = and i64 %49, %.05169.i
  %.not59.i = icmp eq i64 %50, 0
  %or.cond75.i = select i1 %.not58.i, i1 %.not59.i, i1 false
  br i1 %or.cond75.i, label %52, label %.preheader._crit_edge.i

.preheader._crit_edge.i:                          ; preds = %.preheader.i
  %51 = getelementptr inbounds nuw i8, ptr %44, i64 2
  br label %55

52:                                               ; preds = %.preheader.i
  %53 = and i64 %49, %.05367.i
  %.not60.i = icmp eq i64 %53, 0
  %54 = and i64 %46, %.05169.i
  %.not61.i = icmp eq i64 %54, 0
  %or.cond.i = select i1 %.not60.i, i1 %.not61.i, i1 false
  br i1 %or.cond.i, label %.loopexit.i, label %55

55:                                               ; preds = %52, %.preheader._crit_edge.i
  %.046.i = phi ptr [ %51, %.preheader._crit_edge.i ], [ %44, %52 ]
  %56 = or i64 %49, %46
  %57 = xor i64 %56, -1
  %58 = and i64 %.05367.i, %57
  %59 = and i64 %.05169.i, %57
  %60 = icmp ugt ptr %.04871.i, %42
  br i1 %60, label %61, label %.preheader

61:                                               ; preds = %55
  %62 = getelementptr inbounds nuw i8, ptr %.04871.i, i64 1
  store i8 44, ptr %.04871.i, align 1, !tbaa !63
  br label %.preheader

.preheader:                                       ; preds = %61, %55
  %.3.i.ph = phi ptr [ %.04871.i, %55 ], [ %62, %61 ]
  br label %63

63:                                               ; preds = %.preheader, %63
  %.3.i = phi ptr [ %66, %63 ], [ %.3.i.ph, %.preheader ]
  %.147.i = phi ptr [ %64, %63 ], [ %.046.i, %.preheader ]
  %64 = getelementptr inbounds nuw i8, ptr %.147.i, i64 1
  %65 = load i8, ptr %.147.i, align 1, !tbaa !63
  %66 = getelementptr inbounds nuw i8, ptr %.3.i, i64 1
  store i8 %65, ptr %.3.i, align 1, !tbaa !63
  %.not62.i = icmp eq i8 %65, 0
  br i1 %.not62.i, label %.loopexit.i, label %63, !llvm.loop !64

.loopexit.i:                                      ; preds = %63, %52
  %.154.i = phi i64 [ %.05367.i, %52 ], [ %58, %63 ]
  %.152.i = phi i64 [ %.05169.i, %52 ], [ %59, %63 ]
  %.149.i = phi ptr [ %.04871.i, %52 ], [ %.3.i, %63 ]
  %67 = getelementptr inbounds nuw i8, ptr %.14373.i, i64 32
  %68 = load ptr, ptr %67, align 8, !tbaa !61
  %.not57.i = icmp eq ptr %68, null
  br i1 %.not57.i, label %ae_fflagstostr.exit, label %.preheader.i, !llvm.loop !65

ae_fflagstostr.exit:                              ; preds = %.loopexit.i
  store i8 0, ptr %.149.i, align 1, !tbaa !63
  %69 = call i32 @archive_mstring_copy_mbs(ptr noundef nonnull %4, ptr noundef nonnull %42) #21
  call void @free(ptr noundef nonnull %42) #21
  %70 = load ptr, ptr %0, align 8, !tbaa !25
  %71 = call i32 @archive_mstring_get_mbs(ptr noundef %70, ptr noundef nonnull %4, ptr noundef nonnull %2) #21
  %72 = icmp eq i32 %71, 0
  br i1 %72, label %73, label %75

73:                                               ; preds = %ae_fflagstostr.exit
  %74 = load ptr, ptr %2, align 8, !tbaa !57
  br label %ae_fflagstostr.exit.thread

75:                                               ; preds = %ae_fflagstostr.exit
  %76 = tail call ptr @__errno_location() #25
  %77 = load i32, ptr %76, align 4, !tbaa !28
  %78 = icmp eq i32 %77, 12
  br i1 %78, label %79, label %ae_fflagstostr.exit.thread

79:                                               ; preds = %75
  call void @__archive_errx(i32 noundef 1, ptr noundef nonnull @.str) #23
  unreachable

ae_fflagstostr.exit.thread:                       ; preds = %14, %41, %39, %75, %7, %73
  %.0 = phi ptr [ %74, %73 ], [ %8, %7 ], [ null, %75 ], [ null, %39 ], [ null, %41 ], [ null, %14 ]
  call void @llvm.lifetime.end.p0(i64 8, ptr nonnull %2) #21
  ret ptr %.0
}